target datalayout = "e-m:e-p270:32:32-p271:32:32-p272:64:64-i64:64-i128:128-f80:128-n8:16:32:64-S128"
target triple = "x86_64-pc-linux-gnu"

%union.pthread_mutex_t = type { %struct.__pthread_mutex_s }
%struct.__pthread_mutex_s = type { i32, i32, i32, i32, i32, i16, i16, %struct.__pthread_internal_list }
%struct.__pthread_internal_list = type { ptr, ptr }
%union.pthread_cond_t = type { %struct.__pthread_cond_s }
%struct.__pthread_cond_s = type { %union.__atomic_wide_counter, %union.__atomic_wide_counter, [2 x i32], [2 x i32], i32, i32, [2 x i32] }
%union.__atomic_wide_counter = type { i64 }

@.str.3 = private unnamed_addr constant [9 x i8] c"slurmd.c\00", align 1
@.str.43 = private unnamed_addr constant [29 x i8] c"%s: pthread_mutex_lock(): %m\00", align 1
@.str.44 = private unnamed_addr constant [31 x i8] c"%s: pthread_mutex_unlock(): %m\00", align 1
@active_mutex = internal global %union.pthread_mutex_t zeroinitializer, align 8
@__func__._increment_thd_count = private unnamed_addr constant [21 x i8] c"_increment_thd_count\00", align 1
@active_threads = internal global i32 0, align 4
@.str.84 = private unnamed_addr constant [34 x i8] c"active_threads == MAX_THREADS(%d)\00", align 1
@active_cond = internal global %union.pthread_cond_t zeroinitializer, align 8
@.str.85 = private unnamed_addr constant [34 x i8] c"%s:%d %s: pthread_cond_wait(): %m\00", align 1

; Function Attrs: nounwind uwtable
define internal i32 @_increment_thd_count(i1 noundef zeroext %0) #0 {
  %2 = alloca i32, align 4
  %3 = alloca i8, align 1
  %4 = alloca i8, align 1
  %5 = alloca i32, align 4
  %6 = alloca i32, align 4
  %7 = alloca i32, align 4
  %8 = alloca i32, align 4
  %9 = alloca i32, align 4
  %10 = zext i1 %0 to i8
  store i8 %10, ptr %3, align 1
  call void @llvm.lifetime.start.p0(i64 1, ptr %4) #11
  store i8 0, ptr %4, align 1
  br label %11

11:                                               ; preds = %1
  call void @llvm.lifetime.start.p0(i64 4, ptr %5) #11
  %12 = call i32 @pthread_mutex_lock(ptr noundef @active_mutex) #11
  store i32 %12, ptr %5, align 4
  %13 = load i32, ptr %5, align 4
  %14 = icmp ne i32 %13, 0
  br i1 %14, label %15, label %18

15:                                               ; preds = %11
  %16 = load i32, ptr %5, align 4
  %17 = call ptr @__errno_location() #15
  store i32 %16, ptr %17, align 4
  call void (ptr, ...) @fatal_abort(ptr noundef @.str.43, ptr noundef @__func__._increment_thd_count) #12
  unreachable

18:                                               ; preds = %11
  call void @llvm.lifetime.end.p0(i64 4, ptr %5) #11
  br label %19

19:                                               ; preds = %18
  br label %20

20:                                               ; preds = %19
  br label %21

21:                                               ; preds = %64, %20
  %22 = load i32, ptr @active_threads, align 4
  %23 = icmp sge i32 %22, 256
  br i1 %23, label %24, label %65

24:                                               ; preds = %21
  %25 = load i8, ptr %4, align 1, !range !8, !noundef !9
  %26 = trunc i8 %25 to i1
  br i1 %26, label %38, label %27

27:                                               ; preds = %24
  br label %28

28:                                               ; preds = %27
  br label %29

29:                                               ; preds = %28
  %30 = call i32 @get_log_level()
  %31 = icmp sge i32 %30, 3
  br i1 %31, label %32, label %33

32:                                               ; preds = %29
  call void (i32, ptr, ...) @log_var(i32 noundef 3, ptr noundef @.str.84, i32 noundef 256)
  br label %33

33:                                               ; preds = %32, %29
  br label %34

34:                                               ; preds = %33
  br label %35

35:                                               ; preds = %34
  br label %36

36:                                               ; preds = %35
  br label %37

37:                                               ; preds = %36
  store i8 1, ptr %4, align 1
  br label %38

38:                                               ; preds = %37, %24
  %39 = load i8, ptr %3, align 1, !range !8, !noundef !9
  %40 = trunc i8 %39 to i1
  br i1 %40, label %41, label %53

41:                                               ; preds = %38
  br label %42

42:                                               ; preds = %41
  call void @llvm.lifetime.start.p0(i64 4, ptr %6) #11
  %43 = call i32 @pthread_cond_wait(ptr noundef @active_cond, ptr noundef @active_mutex)
  store i32 %43, ptr %6, align 4
  %44 = load i32, ptr %6, align 4
  %45 = icmp ne i32 %44, 0
  br i1 %45, label %46, label %50

46:                                               ; preds = %42
  %47 = load i32, ptr %6, align 4
  %48 = call ptr @__errno_location() #15
  store i32 %47, ptr %48, align 4
  %49 = call i32 (ptr, ...) @error(ptr noundef @.str.85, ptr noundef @.str.3, i32 noundef 676, ptr noundef @__func__._increment_thd_count)
  br label %50

50:                                               ; preds = %46, %42
  call void @llvm.lifetime.end.p0(i64 4, ptr %6) #11
  br label %51

51:                                               ; preds = %50
  br label %52

52:                                               ; preds = %51
  br label %64

53:                                               ; preds = %38
  br label %54

54:                                               ; preds = %53
  call void @llvm.lifetime.start.p0(i64 4, ptr %7) #11
  %55 = call i32 @pthread_mutex_unlock(ptr noundef @active_mutex) #11
  store i32 %55, ptr %7, align 4
  %56 = load i32, ptr %7, align 4
  %57 = icmp ne i32 %56, 0
  br i1 %57, label %58, label %61

58:                                               ; preds = %54
  %59 = load i32, ptr %7, align 4
  %60 = call ptr @__errno_location() #15
  store i32 %59, ptr %60, align 4
  call void (ptr, ...) @fatal_abort(ptr noundef @.str.44, ptr noundef @__func__._increment_thd_count) #12
  unreachable

61:                                               ; preds = %54
  call void @llvm.lifetime.end.p0(i64 4, ptr %7) #11
  br label %62

62:                                               ; preds = %61
  br label %63

63:                                               ; preds = %62
  store i32 11, ptr %2, align 4
  store i32 1, ptr %8, align 4
  br label %78

64:                                               ; preds = %52
  br label %21, !llvm.loop !18

65:                                               ; preds = %21
  %66 = load i32, ptr @active_threads, align 4
  %67 = add nsw i32 %66, 1
  store i32 %67, ptr @active_threads, align 4
  br label %68

68:                                               ; preds = %65
  call void @llvm.lifetime.start.p0(i64 4, ptr %9) #11
  %69 = call i32 @pthread_mutex_unlock(ptr noundef @active_mutex) #11
  store i32 %69, ptr %9, align 4
  %70 = load i32, ptr %9, align 4
  %71 = icmp ne i32 %70, 0
  br i1 %71, label %72, label %75

72:                                               ; preds = %68
  %73 = load i32, ptr %9, align 4
  %74 = call ptr @__errno_location() #15
  store i32 %73, ptr %74, align 4
  call void (ptr, ...) @fatal_abort(ptr noundef @.str.44, ptr noundef @__func__._increment_thd_count) #12
  unreachable

75:                                               ; preds = %68
  call void @llvm.lifetime.end.p0(i64 4, ptr %9) #11
  br label %76

76:                                               ; preds = %75
  br label %77

77:                                               ; preds = %76
  store i32 0, ptr %2, align 4
  store i32 1, ptr %8, align 4
  br label %78

78:                                               ; preds = %77, %63
  call void @llvm.lifetime.end.p0(i64 1, ptr %4) #11
  %79 = load i32, ptr %2, align 4
  ret i32 %79
}