; Function Attrs: nounwind uwtable
define internal fastcc range(i32 0, 12) i32 @_increment_thd_count(i1 noundef zeroext %0) unnamed_addr #0 {
  %2 = tail call i32 @pthread_mutex_lock(ptr noundef nonnull @active_mutex) #18
  %.not = icmp eq i32 %2, 0
  br i1 %.not, label %.preheader, label %15

.preheader:                                       ; preds = %1
  %3 = load i32, ptr @active_threads, align 4
  %4 = icmp sgt i32 %3, 255
  br i1 %4, label %.lr.ph, label %._crit_edge

.lr.ph:                                           ; preds = %.preheader
  %5 = tail call i32 @get_log_level() #18
  %6 = icmp sgt i32 %5, 2
  br i1 %0, label %.lr.ph.split.us, label %.lr.ph.split

.lr.ph.split.us:                                  ; preds = %.lr.ph
  br i1 %6, label %7, label %.critedge.preheader

7:                                                ; preds = %.lr.ph.split.us
  tail call void (i32, ptr, ...) @log_var(i32 noundef 3, ptr noundef nonnull @.str.84, i32 noundef 256) #18
  br label %.critedge.preheader

.critedge.preheader:                              ; preds = %.lr.ph.split.us, %7
  br label %.critedge

.critedge:                                        ; preds = %.critedge.preheader, %12
  %8 = tail call i32 @pthread_cond_wait(ptr noundef nonnull @active_cond, ptr noundef nonnull @active_mutex) #18
  %.not19.us = icmp eq i32 %8, 0
  br i1 %.not19.us, label %12, label %9

9:                                                ; preds = %.critedge
  %10 = tail call ptr @__errno_location() #21
  store i32 %8, ptr %10, align 4
  %11 = tail call i32 (ptr, ...) @error(ptr noundef nonnull @.str.85, ptr noundef nonnull @.str.3, i32 noundef 676, ptr noundef nonnull @__func__._increment_thd_count) #18
  br label %12

12:                                               ; preds = %9, %.critedge
  %13 = load i32, ptr @active_threads, align 4
  %14 = icmp sgt i32 %13, 255
  br i1 %14, label %.critedge, label %._crit_edge, !llvm.loop !18

15:                                               ; preds = %1
  %16 = tail call ptr @__errno_location() #21
  store i32 %2, ptr %16, align 4
  tail call void (ptr, ...) @fatal_abort(ptr noundef nonnull @.str.43, ptr noundef nonnull @__func__._increment_thd_count) #19
  unreachable

.lr.ph.split:                                     ; preds = %.lr.ph
  br i1 %6, label %17, label %18

17:                                               ; preds = %.lr.ph.split
  tail call void (i32, ptr, ...) @log_var(i32 noundef 3, ptr noundef nonnull @.str.84, i32 noundef 256) #18
  br label %18

18:                                               ; preds = %17, %.lr.ph.split
  %19 = tail call i32 @pthread_mutex_unlock(ptr noundef nonnull @active_mutex) #18
  %.not18 = icmp eq i32 %19, 0
  br i1 %.not18, label %26, label %20

20:                                               ; preds = %18
  %21 = tail call ptr @__errno_location() #21
  store i32 %19, ptr %21, align 4
  tail call void (ptr, ...) @fatal_abort(ptr noundef nonnull @.str.44, ptr noundef nonnull @__func__._increment_thd_count) #19
  unreachable

._crit_edge:                                      ; preds = %12, %.preheader
  %.lcssa = phi i32 [ %3, %.preheader ], [ %13, %12 ]
  %22 = add nsw i32 %.lcssa, 1
  store i32 %22, ptr @active_threads, align 4
  %23 = tail call i32 @pthread_mutex_unlock(ptr noundef nonnull @active_mutex) #18
  %.not17 = icmp eq i32 %23, 0
  br i1 %.not17, label %26, label %24

24:                                               ; preds = %._crit_edge
  %25 = tail call ptr @__errno_location() #21
  store i32 %23, ptr %25, align 4
  tail call void (ptr, ...) @fatal_abort(ptr noundef nonnull @.str.44, ptr noundef nonnull @__func__._increment_thd_count) #19
  unreachable

26:                                               ; preds = %._crit_edge, %18
  %.0 = phi i32 [ 11, %18 ], [ 0, %._crit_edge ]
  ret i32 %.0
}